; Function Attrs: nounwind uwtable
define internal noundef i32 @config_input(ptr noundef readonly captures(none) %0) #2 {
  %2 = getelementptr inbounds nuw i8, ptr %0, i64 16
  %3 = load ptr, ptr %2, align 8, !tbaa !20
  %4 = getelementptr inbounds nuw i8, ptr %3, i64 72
  %5 = load ptr, ptr %4, align 8, !tbaa !4
  %6 = getelementptr inbounds nuw i8, ptr %0, i64 36
  %7 = load i32, ptr %6, align 4, !tbaa !29
  %8 = tail call ptr @av_pix_fmt_desc_get(i32 noundef %7) #9
  %9 = load i32, ptr %6, align 4, !tbaa !29
  %10 = tail call i32 @av_pix_fmt_count_planes(i32 noundef %9) #9
  %11 = getelementptr inbounds nuw i8, ptr %5, i64 56
  store i32 %10, ptr %11, align 8, !tbaa !30
  %12 = getelementptr inbounds nuw i8, ptr %8, i64 9
  %13 = load i8, ptr %12, align 1, !tbaa !35
  %14 = zext nneg i8 %13 to i32
  %15 = getelementptr inbounds nuw i8, ptr %0, i64 44
  %16 = load i32, ptr %15, align 4, !tbaa !37
  %17 = sub nsw i32 0, %16
  %18 = getelementptr inbounds nuw i8, ptr %8, i64 10
  %19 = load i8, ptr %18, align 2, !tbaa !38
  %20 = zext nneg i8 %19 to i32
  %21 = ashr i32 %17, %20
  %22 = sub nsw i32 0, %21
  %23 = getelementptr inbounds nuw i8, ptr %5, i64 24
  %24 = getelementptr inbounds nuw i8, ptr %5, i64 32
  store i32 %22, ptr %24, align 8, !tbaa !39
  %25 = getelementptr inbounds nuw i8, ptr %5, i64 28
  store i32 %22, ptr %25, align 4, !tbaa !39
  %26 = getelementptr inbounds nuw i8, ptr %0, i64 44
  %27 = load i32, ptr %26, align 4, !tbaa !37
  %28 = getelementptr inbounds nuw i8, ptr %5, i64 36
  store i32 %27, ptr %28, align 4, !tbaa !39
  store i32 %27, ptr %23, align 8, !tbaa !39
  %29 = getelementptr inbounds nuw i8, ptr %0, i64 40
  %30 = load i32, ptr %29, align 8, !tbaa !40
  %31 = sub nsw i32 0, %30
  %32 = ashr i32 %31, %14
  %33 = sub nsw i32 0, %32
  %34 = getelementptr inbounds nuw i8, ptr %5, i64 8
  %35 = getelementptr inbounds nuw i8, ptr %5, i64 16
  store i32 %33, ptr %35, align 8, !tbaa !39
  %36 = getelementptr inbounds nuw i8, ptr %5, i64 12
  store i32 %33, ptr %36, align 4, !tbaa !39
  %37 = getelementptr inbounds nuw i8, ptr %0, i64 40
  %38 = load i32, ptr %37, align 8, !tbaa !40
  %39 = getelementptr inbounds nuw i8, ptr %5, i64 20
  store i32 %38, ptr %39, align 4, !tbaa !39
  store i32 %38, ptr %34, align 8, !tbaa !39
  %40 = getelementptr inbounds nuw i8, ptr %8, i64 40
  %41 = load i32, ptr %40, align 8, !tbaa !41
  %42 = getelementptr inbounds nuw i8, ptr %5, i64 68
  store i32 %41, ptr %42, align 4, !tbaa !43
  %notmask = shl nsw i32 -1, %41
  %43 = xor i32 %notmask, -1
  %44 = getelementptr inbounds nuw i8, ptr %5, i64 72
  store i32 %43, ptr %44, align 8, !tbaa !44
  %45 = lshr i32 %43, 1
  %46 = getelementptr inbounds nuw i8, ptr %5, i64 64
  store i32 %45, ptr %46, align 8, !tbaa !45
  %47 = icmp eq i32 %41, 8
  br i1 %47, label %48, label %50

48:                                               ; preds = %1
  %49 = getelementptr inbounds nuw i8, ptr %5, i64 176
  store ptr @maskedmerge8, ptr %49, align 8, !tbaa !46
  br label %55

50:                                               ; preds = %1
  %51 = icmp slt i32 %41, 17
  %52 = getelementptr inbounds nuw i8, ptr %5, i64 176
  br i1 %51, label %53, label %54

53:                                               ; preds = %50
  store ptr @maskedmerge16, ptr %52, align 8, !tbaa !46
  br label %55

54:                                               ; preds = %50
  store ptr @maskedmerge32, ptr %52, align 8, !tbaa !46
  br label %55

55:                                               ; preds = %53, %54, %48
  ret i32 0
}